; Function Attrs: nounwind sspstrong uwtable
define internal void @char_class_init(ptr noundef %oc, ptr readnone captures(none) %data) #0 {
entry:
  %call.i = tail call ptr @object_class_dynamic_cast_assert(ptr noundef %oc, ptr noundef nonnull @.str.4, ptr noundef nonnull @.str.104, i32 noundef 231, ptr noundef nonnull @__func__.CHARDEV_CLASS) #13
  %chr_write = getelementptr inbounds nuw i8, ptr %call.i, i64 120
  store ptr @null_chr_write, ptr %chr_write, align 8
  %chr_be_event = getelementptr inbounds nuw i8, ptr %call.i, i64 224
  store ptr @chr_be_event, ptr %chr_be_event, align 8
  ret void
}